target datalayout = "e-m:e-p270:32:32-p271:32:32-p272:64:64-i64:64-i128:128-f80:128-n8:16:32:64-S128"
target triple = "x86_64-pc-linux-gnu"

%struct.printTableFooter = type { ptr, ptr }
%struct.printTableOpt = type { i32, i16, i32, i32, i16, i16, i32, i8, i8, i8, i8, i64, ptr, %struct.separator, %struct.separator, [2 x i8], i8, ptr, i32, i32, i32, i32, i32, i32 }
%struct.separator = type { ptr, i8 }
%struct.printTableContent = type { ptr, ptr, i32, i32, ptr, ptr, ptr, ptr, i64, ptr, ptr, ptr, ptr, ptr }

@cancel_pressed = dso_local global i32 0, align 4
@.str.13 = private unnamed_addr constant [8 x i8] c"<br />\0A\00", align 1
@default_footer = internal global [100 x i8] zeroinitializer, align 16
@.str.34 = private unnamed_addr constant [10 x i8] c"(%lu row)\00", align 1
@.str.35 = private unnamed_addr constant [11 x i8] c"(%lu rows)\00", align 1
@default_footer_cell = internal global %struct.printTableFooter { ptr @default_footer, ptr null }, align 8
@.str.44 = private unnamed_addr constant [19 x i8] c"<table border=\22%d\22\00", align 1
@.str.45 = private unnamed_addr constant [4 x i8] c" %s\00", align 1
@.str.46 = private unnamed_addr constant [3 x i8] c">\0A\00", align 1
@.str.47 = private unnamed_addr constant [12 x i8] c"  <caption>\00", align 1
@.str.48 = private unnamed_addr constant [12 x i8] c"</caption>\0A\00", align 1
@.str.52 = private unnamed_addr constant [7 x i8] c"</th>\0A\00", align 1
@.str.53 = private unnamed_addr constant [20 x i8] c"    <td align=\22%s\22>\00", align 1
@.str.54 = private unnamed_addr constant [6 x i8] c"right\00", align 1
@.str.55 = private unnamed_addr constant [5 x i8] c"left\00", align 1
@.str.56 = private unnamed_addr constant [3 x i8] c" \09\00", align 1
@.str.57 = private unnamed_addr constant [8 x i8] c"&nbsp; \00", align 1
@.str.59 = private unnamed_addr constant [10 x i8] c"</table>\0A\00", align 1
@.str.60 = private unnamed_addr constant [4 x i8] c"<p>\00", align 1
@.str.61 = private unnamed_addr constant [5 x i8] c"</p>\00", align 1
@.str.62 = private unnamed_addr constant [8 x i8] c"  <tr>\0A\00", align 1
@.str.63 = private unnamed_addr constant [24 x i8] c"    <th align=\22center\22>\00", align 1
@.str.64 = private unnamed_addr constant [9 x i8] c"  </tr>\0A\00", align 1
@.str.65 = private unnamed_addr constant [21 x i8] c"  <tr valign=\22top\22>\0A\00", align 1
@.str.66 = private unnamed_addr constant [7 x i8] c"</td>\0A\00", align 1

; Function Attrs: nounwind uwtable
define internal ptr @footers_with_default(ptr noundef %0) #0 {
  %2 = alloca ptr, align 8
  %3 = alloca ptr, align 8
  %4 = alloca i64, align 8
  store ptr %0, ptr %3, align 8
  %5 = load ptr, ptr %3, align 8
  %6 = getelementptr inbounds nuw %struct.printTableContent, ptr %5, i32 0, i32 10
  %7 = load ptr, ptr %6, align 8
  %8 = icmp eq ptr %7, null
  br i1 %8, label %9, label %32

9:                                                ; preds = %1
  %10 = load ptr, ptr %3, align 8
  %11 = getelementptr inbounds nuw %struct.printTableContent, ptr %10, i32 0, i32 0
  %12 = load ptr, ptr %11, align 8
  %13 = getelementptr inbounds nuw %struct.printTableOpt, ptr %12, i32 0, i32 10
  %14 = load i8, ptr %13, align 1, !range !4, !noundef !5
  %15 = trunc i8 %14 to i1
  br i1 %15, label %16, label %32

16:                                               ; preds = %9
  call void @llvm.lifetime.start.p0(i64 8, ptr %4) #8
  %17 = load ptr, ptr %3, align 8
  %18 = getelementptr inbounds nuw %struct.printTableContent, ptr %17, i32 0, i32 0
  %19 = load ptr, ptr %18, align 8
  %20 = getelementptr inbounds nuw %struct.printTableOpt, ptr %19, i32 0, i32 11
  %21 = load i64, ptr %20, align 8
  %22 = load ptr, ptr %3, align 8
  %23 = getelementptr inbounds nuw %struct.printTableContent, ptr %22, i32 0, i32 3
  %24 = load i32, ptr %23, align 4
  %25 = sext i32 %24 to i64
  %26 = add i64 %21, %25
  store i64 %26, ptr %4, align 8
  %27 = load i64, ptr %4, align 8
  %28 = icmp eq i64 %27, 1
  %29 = select i1 %28, ptr @.str.34, ptr @.str.35
  %30 = load i64, ptr %4, align 8
  %31 = call i32 (ptr, i64, ptr, ...) @pg_snprintf(ptr noundef @default_footer, i64 noundef 100, ptr noundef %29, i64 noundef %30)
  store ptr @default_footer_cell, ptr %2, align 8
  call void @llvm.lifetime.end.p0(i64 8, ptr %4) #8
  br label %36

32:                                               ; preds = %9, %1
  %33 = load ptr, ptr %3, align 8
  %34 = getelementptr inbounds nuw %struct.printTableContent, ptr %33, i32 0, i32 10
  %35 = load ptr, ptr %34, align 8
  store ptr %35, ptr %2, align 8
  br label %36

36:                                               ; preds = %32, %16
  %37 = load ptr, ptr %2, align 8
  ret ptr %37
}

; Function Attrs: nounwind uwtable
define internal void @print_html_text(ptr noundef %0, ptr noundef %1) #0 {
  %3 = alloca ptr, align 8
  %4 = alloca ptr, align 8
  %5 = alloca i8, align 1
  %6 = alloca i16, align 2
  %7 = alloca ptr, align 8
  %8 = alloca i32, align 4
  %9 = alloca ptr, align 8
  %10 = alloca i32, align 4
  %11 = alloca ptr, align 8
  %12 = alloca ptr, align 8
  store ptr %0, ptr %3, align 8
  store ptr %1, ptr %4, align 8
  call void @llvm.lifetime.start.p0(i64 1, ptr %5) #8
  %13 = load ptr, ptr %3, align 8
  %14 = getelementptr inbounds nuw %struct.printTableContent, ptr %13, i32 0, i32 0
  %15 = load ptr, ptr %14, align 8
  %16 = getelementptr inbounds nuw %struct.printTableOpt, ptr %15, i32 0, i32 7
  %17 = load i8, ptr %16, align 8, !range !4, !noundef !5
  %18 = trunc i8 %17 to i1
  %19 = zext i1 %18 to i8
  store i8 %19, ptr %5, align 1
  call void @llvm.lifetime.start.p0(i64 2, ptr %6) #8
  %20 = load ptr, ptr %3, align 8
  %21 = getelementptr inbounds nuw %struct.printTableContent, ptr %20, i32 0, i32 0
  %22 = load ptr, ptr %21, align 8
  %23 = getelementptr inbounds nuw %struct.printTableOpt, ptr %22, i32 0, i32 4
  %24 = load i16, ptr %23, align 8
  store i16 %24, ptr %6, align 2
  call void @llvm.lifetime.start.p0(i64 8, ptr %7) #8
  %25 = load ptr, ptr %3, align 8
  %26 = getelementptr inbounds nuw %struct.printTableContent, ptr %25, i32 0, i32 0
  %27 = load ptr, ptr %26, align 8
  %28 = getelementptr inbounds nuw %struct.printTableOpt, ptr %27, i32 0, i32 17
  %29 = load ptr, ptr %28, align 8
  store ptr %29, ptr %7, align 8
  call void @llvm.lifetime.start.p0(i64 4, ptr %8) #8
  call void @llvm.lifetime.start.p0(i64 8, ptr %9) #8
  %30 = load volatile i32, ptr @cancel_pressed, align 4
  %31 = icmp ne i32 %30, 0
  br i1 %31, label %32, label %33

32:                                               ; preds = %2
  store i32 1, ptr %10, align 4
  br label %217

33:                                               ; preds = %2
  %34 = load ptr, ptr %3, align 8
  %35 = getelementptr inbounds nuw %struct.printTableContent, ptr %34, i32 0, i32 0
  %36 = load ptr, ptr %35, align 8
  %37 = getelementptr inbounds nuw %struct.printTableOpt, ptr %36, i32 0, i32 8
  %38 = load i8, ptr %37, align 1, !range !4, !noundef !5
  %39 = trunc i8 %38 to i1
  br i1 %39, label %40, label %98

40:                                               ; preds = %33
  %41 = load ptr, ptr %4, align 8
  %42 = load i16, ptr %6, align 2
  %43 = zext i16 %42 to i32
  %44 = call i32 (ptr, ptr, ...) @pg_fprintf(ptr noundef %41, ptr noundef @.str.44, i32 noundef %43)
  %45 = load ptr, ptr %7, align 8
  %46 = icmp ne ptr %45, null
  br i1 %46, label %47, label %51

47:                                               ; preds = %40
  %48 = load ptr, ptr %4, align 8
  %49 = load ptr, ptr %7, align 8
  %50 = call i32 (ptr, ptr, ...) @pg_fprintf(ptr noundef %48, ptr noundef @.str.45, ptr noundef %49)
  br label %51

51:                                               ; preds = %47, %40
  %52 = load ptr, ptr %4, align 8
  %53 = call i32 @fputs(ptr noundef @.str.46, ptr noundef %52)
  %54 = load i8, ptr %5, align 1, !range !4, !noundef !5
  %55 = trunc i8 %54 to i1
  br i1 %55, label %70, label %56

56:                                               ; preds = %51
  %57 = load ptr, ptr %3, align 8
  %58 = getelementptr inbounds nuw %struct.printTableContent, ptr %57, i32 0, i32 1
  %59 = load ptr, ptr %58, align 8
  %60 = icmp ne ptr %59, null
  br i1 %60, label %61, label %70

61:                                               ; preds = %56
  %62 = load ptr, ptr %4, align 8
  %63 = call i32 @fputs(ptr noundef @.str.47, ptr noundef %62)
  %64 = load ptr, ptr %3, align 8
  %65 = getelementptr inbounds nuw %struct.printTableContent, ptr %64, i32 0, i32 1
  %66 = load ptr, ptr %65, align 8
  %67 = load ptr, ptr %4, align 8
  call void @html_escaped_print(ptr noundef %66, ptr noundef %67)
  %68 = load ptr, ptr %4, align 8
  %69 = call i32 @fputs(ptr noundef @.str.48, ptr noundef %68)
  br label %70

70:                                               ; preds = %61, %56, %51
  %71 = load i8, ptr %5, align 1, !range !4, !noundef !5
  %72 = trunc i8 %71 to i1
  br i1 %72, label %97, label %73

73:                                               ; preds = %70
  %74 = load ptr, ptr %4, align 8
  %75 = call i32 @fputs(ptr noundef @.str.62, ptr noundef %74)
  %76 = load ptr, ptr %3, align 8
  %77 = getelementptr inbounds nuw %struct.printTableContent, ptr %76, i32 0, i32 4
  %78 = load ptr, ptr %77, align 8
  store ptr %78, ptr %9, align 8
  br label %79

79:                                               ; preds = %91, %73
  %80 = load ptr, ptr %9, align 8
  %81 = load ptr, ptr %80, align 8
  %82 = icmp ne ptr %81, null
  br i1 %82, label %83, label %94

83:                                               ; preds = %79
  %84 = load ptr, ptr %4, align 8
  %85 = call i32 @fputs(ptr noundef @.str.63, ptr noundef %84)
  %86 = load ptr, ptr %9, align 8
  %87 = load ptr, ptr %86, align 8
  %88 = load ptr, ptr %4, align 8
  call void @html_escaped_print(ptr noundef %87, ptr noundef %88)
  %89 = load ptr, ptr %4, align 8
  %90 = call i32 @fputs(ptr noundef @.str.52, ptr noundef %89)
  br label %91

91:                                               ; preds = %83
  %92 = load ptr, ptr %9, align 8
  %93 = getelementptr inbounds nuw ptr, ptr %92, i32 1
  store ptr %93, ptr %9, align 8
  br label %79, !llvm.loop !45

94:                                               ; preds = %79
  %95 = load ptr, ptr %4, align 8
  %96 = call i32 @fputs(ptr noundef @.str.64, ptr noundef %95)
  br label %97

97:                                               ; preds = %94, %70
  br label %98

98:                                               ; preds = %97, %33
  store i32 0, ptr %8, align 4
  %99 = load ptr, ptr %3, align 8
  %100 = getelementptr inbounds nuw %struct.printTableContent, ptr %99, i32 0, i32 6
  %101 = load ptr, ptr %100, align 8
  store ptr %101, ptr %9, align 8
  br label %102

102:                                              ; preds = %167, %98
  %103 = load ptr, ptr %9, align 8
  %104 = load ptr, ptr %103, align 8
  %105 = icmp ne ptr %104, null
  br i1 %105, label %106, label %172

106:                                              ; preds = %102
  %107 = load i32, ptr %8, align 4
  %108 = load ptr, ptr %3, align 8
  %109 = getelementptr inbounds nuw %struct.printTableContent, ptr %108, i32 0, i32 2
  %110 = load i32, ptr %109, align 8
  %111 = urem i32 %107, %110
  %112 = icmp eq i32 %111, 0
  br i1 %112, label %113, label %120

113:                                              ; preds = %106
  %114 = load volatile i32, ptr @cancel_pressed, align 4
  %115 = icmp ne i32 %114, 0
  br i1 %115, label %116, label %117

116:                                              ; preds = %113
  br label %172

117:                                              ; preds = %113
  %118 = load ptr, ptr %4, align 8
  %119 = call i32 @fputs(ptr noundef @.str.65, ptr noundef %118)
  br label %120

120:                                              ; preds = %117, %106
  %121 = load ptr, ptr %4, align 8
  %122 = load ptr, ptr %3, align 8
  %123 = getelementptr inbounds nuw %struct.printTableContent, ptr %122, i32 0, i32 12
  %124 = load ptr, ptr %123, align 8
  %125 = load i32, ptr %8, align 4
  %126 = load ptr, ptr %3, align 8
  %127 = getelementptr inbounds nuw %struct.printTableContent, ptr %126, i32 0, i32 2
  %128 = load i32, ptr %127, align 8
  %129 = urem i32 %125, %128
  %130 = zext i32 %129 to i64
  %131 = getelementptr inbounds nuw i8, ptr %124, i64 %130
  %132 = load i8, ptr %131, align 1
  %133 = sext i8 %132 to i32
  %134 = icmp eq i32 %133, 114
  %135 = select i1 %134, ptr @.str.54, ptr @.str.55
  %136 = call i32 (ptr, ptr, ...) @pg_fprintf(ptr noundef %121, ptr noundef @.str.53, ptr noundef %135)
  %137 = load ptr, ptr %9, align 8
  %138 = load ptr, ptr %137, align 8
  %139 = load ptr, ptr %9, align 8
  %140 = load ptr, ptr %139, align 8
  %141 = call i64 @strspn(ptr noundef %140, ptr noundef @.str.56) #9
  %142 = getelementptr inbounds nuw i8, ptr %138, i64 %141
  %143 = load i8, ptr %142, align 1
  %144 = sext i8 %143 to i32
  %145 = icmp eq i32 %144, 0
  br i1 %145, label %146, label %149

146:                                              ; preds = %120
  %147 = load ptr, ptr %4, align 8
  %148 = call i32 @fputs(ptr noundef @.str.57, ptr noundef %147)
  br label %153

149:                                              ; preds = %120
  %150 = load ptr, ptr %9, align 8
  %151 = load ptr, ptr %150, align 8
  %152 = load ptr, ptr %4, align 8
  call void @html_escaped_print(ptr noundef %151, ptr noundef %152)
  br label %153

153:                                              ; preds = %149, %146
  %154 = load ptr, ptr %4, align 8
  %155 = call i32 @fputs(ptr noundef @.str.66, ptr noundef %154)
  %156 = load i32, ptr %8, align 4
  %157 = add i32 %156, 1
  %158 = load ptr, ptr %3, align 8
  %159 = getelementptr inbounds nuw %struct.printTableContent, ptr %158, i32 0, i32 2
  %160 = load i32, ptr %159, align 8
  %161 = urem i32 %157, %160
  %162 = icmp eq i32 %161, 0
  br i1 %162, label %163, label %166

163:                                              ; preds = %153
  %164 = load ptr, ptr %4, align 8
  %165 = call i32 @fputs(ptr noundef @.str.64, ptr noundef %164)
  br label %166

166:                                              ; preds = %163, %153
  br label %167

167:                                              ; preds = %166
  %168 = load i32, ptr %8, align 4
  %169 = add i32 %168, 1
  store i32 %169, ptr %8, align 4
  %170 = load ptr, ptr %9, align 8
  %171 = getelementptr inbounds nuw ptr, ptr %170, i32 1
  store ptr %171, ptr %9, align 8
  br label %102, !llvm.loop !46

172:                                              ; preds = %116, %102
  %173 = load ptr, ptr %3, align 8
  %174 = getelementptr inbounds nuw %struct.printTableContent, ptr %173, i32 0, i32 0
  %175 = load ptr, ptr %174, align 8
  %176 = getelementptr inbounds nuw %struct.printTableOpt, ptr %175, i32 0, i32 9
  %177 = load i8, ptr %176, align 2, !range !4, !noundef !5
  %178 = trunc i8 %177 to i1
  br i1 %178, label %179, label %216

179:                                              ; preds = %172
  call void @llvm.lifetime.start.p0(i64 8, ptr %11) #8
  %180 = load ptr, ptr %3, align 8
  %181 = call ptr @footers_with_default(ptr noundef %180)
  store ptr %181, ptr %11, align 8
  %182 = load ptr, ptr %4, align 8
  %183 = call i32 @fputs(ptr noundef @.str.59, ptr noundef %182)
  %184 = load i8, ptr %5, align 1, !range !4, !noundef !5
  %185 = trunc i8 %184 to i1
  br i1 %185, label %213, label %186

186:                                              ; preds = %179
  %187 = load ptr, ptr %11, align 8
  %188 = icmp ne ptr %187, null
  br i1 %188, label %189, label %213

189:                                              ; preds = %186
  %190 = load volatile i32, ptr @cancel_pressed, align 4
  %191 = icmp ne i32 %190, 0
  br i1 %191, label %213, label %192

192:                                              ; preds = %189
  call void @llvm.lifetime.start.p0(i64 8, ptr %12) #8
  %193 = load ptr, ptr %4, align 8
  %194 = call i32 @fputs(ptr noundef @.str.60, ptr noundef %193)
  %195 = load ptr, ptr %11, align 8
  store ptr %195, ptr %12, align 8
  br label %196

196:                                              ; preds = %206, %192
  %197 = load ptr, ptr %12, align 8
  %198 = icmp ne ptr %197, null
  br i1 %198, label %199, label %210

199:                                              ; preds = %196
  %200 = load ptr, ptr %12, align 8
  %201 = getelementptr inbounds nuw %struct.printTableFooter, ptr %200, i32 0, i32 0
  %202 = load ptr, ptr %201, align 8
  %203 = load ptr, ptr %4, align 8
  call void @html_escaped_print(ptr noundef %202, ptr noundef %203)
  %204 = load ptr, ptr %4, align 8
  %205 = call i32 @fputs(ptr noundef @.str.13, ptr noundef %204)
  br label %206

206:                                              ; preds = %199
  %207 = load ptr, ptr %12, align 8
  %208 = getelementptr inbounds nuw %struct.printTableFooter, ptr %207, i32 0, i32 1
  %209 = load ptr, ptr %208, align 8
  store ptr %209, ptr %12, align 8
  br label %196, !llvm.loop !47

210:                                              ; preds = %196
  %211 = load ptr, ptr %4, align 8
  %212 = call i32 @fputs(ptr noundef @.str.61, ptr noundef %211)
  call void @llvm.lifetime.end.p0(i64 8, ptr %12) #8
  br label %213

213:                                              ; preds = %210, %189, %186, %179
  %214 = load ptr, ptr %4, align 8
  %215 = call i32 @fputc(i32 noundef 10, ptr noundef %214)
  call void @llvm.lifetime.end.p0(i64 8, ptr %11) #8
  br label %216

216:                                              ; preds = %213, %172
  store i32 0, ptr %10, align 4
  br label %217

217:                                              ; preds = %216, %32
  call void @llvm.lifetime.end.p0(i64 8, ptr %9) #8
  call void @llvm.lifetime.end.p0(i64 4, ptr %8) #8
  call void @llvm.lifetime.end.p0(i64 8, ptr %7) #8
  call void @llvm.lifetime.end.p0(i64 2, ptr %6) #8
  call void @llvm.lifetime.end.p0(i64 1, ptr %5) #8
  %218 = load i32, ptr %10, align 4
  switch i32 %218, label %220 [
    i32 0, label %219
    i32 1, label %219
  ]

219:                                              ; preds = %217, %217
  ret void

220:                                              ; preds = %217
  unreachable
}