; Function Attrs: nounwind uwtable
define internal fastcc void @print_html_text(ptr noundef readonly captures(none) %0, ptr noundef %1) unnamed_addr #3 {
  %3 = load ptr, ptr %0, align 8
  %4 = getelementptr inbounds nuw i8, ptr %3, i64 24
  %5 = load i8, ptr %4, align 8, !range !6, !noundef !7
  %6 = trunc nuw i8 %5 to i1
  %7 = getelementptr inbounds nuw i8, ptr %3, i64 16
  %8 = load i16, ptr %7, align 8
  %9 = getelementptr inbounds nuw i8, ptr %3, i64 88
  %10 = load ptr, ptr %9, align 8
  %11 = load volatile i32, ptr @cancel_pressed, align 4
  %.not64 = icmp eq i32 %11, 0
  br i1 %.not64, label %12, label %118

12:                                               ; preds = %2
  %13 = getelementptr inbounds nuw i8, ptr %3, i64 25
  %14 = load i8, ptr %13, align 1, !range !6, !noundef !7
  %15 = trunc nuw i8 %14 to i1
  br i1 %15, label %16, label %.critedge

16:                                               ; preds = %12
  %17 = zext i16 %8 to i32
  %18 = tail call i32 (ptr, ptr, ...) @pg_fprintf(ptr noundef %1, ptr noundef nonnull @.str.44, i32 noundef %17) #19
  %.not65 = icmp eq ptr %10, null
  br i1 %.not65, label %21, label %19

19:                                               ; preds = %16
  %20 = tail call i32 (ptr, ptr, ...) @pg_fprintf(ptr noundef %1, ptr noundef nonnull @.str.45, ptr noundef nonnull %10) #19
  br label %21

21:                                               ; preds = %19, %16
  %22 = tail call i64 @fwrite(ptr nonnull @.str.46, i64 2, i64 1, ptr %1)
  br i1 %6, label %.critedge, label %23

23:                                               ; preds = %21
  %24 = getelementptr inbounds nuw i8, ptr %0, i64 8
  %25 = load ptr, ptr %24, align 8
  %.not66 = icmp eq ptr %25, null
  br i1 %.not66, label %30, label %26

26:                                               ; preds = %23
  %27 = tail call i64 @fwrite(ptr nonnull @.str.47, i64 11, i64 1, ptr %1)
  %28 = load ptr, ptr %24, align 8
  tail call void @html_escaped_print(ptr noundef %28, ptr noundef %1)
  %29 = tail call i64 @fwrite(ptr nonnull @.str.48, i64 11, i64 1, ptr %1)
  br label %30

30:                                               ; preds = %23, %26
  %31 = tail call i64 @fwrite(ptr nonnull @.str.62, i64 7, i64 1, ptr %1)
  %32 = getelementptr inbounds nuw i8, ptr %0, i64 24
  %33 = load ptr, ptr %32, align 8
  %34 = load ptr, ptr %33, align 8
  %.not6774 = icmp eq ptr %34, null
  br i1 %.not6774, label %._crit_edge, label %.lr.ph

.lr.ph:                                           ; preds = %30, %.lr.ph
  %.06175 = phi ptr [ %38, %.lr.ph ], [ %33, %30 ]
  %35 = tail call i64 @fwrite(ptr nonnull @.str.63, i64 23, i64 1, ptr %1)
  %36 = load ptr, ptr %.06175, align 8
  tail call void @html_escaped_print(ptr noundef %36, ptr noundef %1)
  %37 = tail call i64 @fwrite(ptr nonnull @.str.52, i64 6, i64 1, ptr %1)
  %38 = getelementptr inbounds nuw i8, ptr %.06175, i64 8
  %39 = load ptr, ptr %38, align 8
  %.not67 = icmp eq ptr %39, null
  br i1 %.not67, label %._crit_edge, label %.lr.ph, !llvm.loop !44

._crit_edge:                                      ; preds = %.lr.ph, %30
  %40 = tail call i64 @fwrite(ptr nonnull @.str.64, i64 8, i64 1, ptr %1)
  br label %.critedge

.critedge:                                        ; preds = %21, %._crit_edge, %12
  %41 = getelementptr inbounds nuw i8, ptr %0, i64 40
  %42 = load ptr, ptr %41, align 8
  %43 = load ptr, ptr %42, align 8
  %.not6876 = icmp eq ptr %43, null
  br i1 %.not6876, label %._crit_edge80, label %.lr.ph79

.lr.ph79:                                         ; preds = %.critedge
  %44 = getelementptr inbounds nuw i8, ptr %0, i64 16
  %45 = getelementptr inbounds nuw i8, ptr %0, i64 88
  br label %46

46:                                               ; preds = %.lr.ph79, %78
  %.06078 = phi i32 [ 0, %.lr.ph79 ], [ %72, %78 ]
  %.177 = phi ptr [ %42, %.lr.ph79 ], [ %79, %78 ]
  %47 = load i32, ptr %44, align 8
  %48 = urem i32 %.06078, %47
  %49 = icmp eq i32 %48, 0
  br i1 %49, label %50, label %54

50:                                               ; preds = %46
  %51 = load volatile i32, ptr @cancel_pressed, align 4
  %.not69 = icmp eq i32 %51, 0
  br i1 %.not69, label %52, label %._crit_edge80

52:                                               ; preds = %50
  %53 = tail call i64 @fwrite(ptr nonnull @.str.65, i64 20, i64 1, ptr %1)
  %.pre = load i32, ptr %44, align 8
  %.pre83 = urem i32 %.06078, %.pre
  br label %54

54:                                               ; preds = %52, %46
  %.pre-phi = phi i32 [ %.pre83, %52 ], [ %48, %46 ]
  %55 = load ptr, ptr %45, align 8
  %56 = zext i32 %.pre-phi to i64
  %57 = getelementptr inbounds nuw i8, ptr %55, i64 %56
  %58 = load i8, ptr %57, align 1
  %59 = icmp eq i8 %58, 114
  %60 = select i1 %59, ptr @.str.54, ptr @.str.55
  %61 = tail call i32 (ptr, ptr, ...) @pg_fprintf(ptr noundef %1, ptr noundef nonnull @.str.53, ptr noundef nonnull %60) #19
  %62 = load ptr, ptr %.177, align 8
  %63 = tail call i64 @strspn(ptr noundef %62, ptr noundef nonnull @.str.56) #20
  %64 = getelementptr inbounds nuw i8, ptr %62, i64 %63
  %65 = load i8, ptr %64, align 1
  %66 = icmp eq i8 %65, 0
  br i1 %66, label %67, label %69

67:                                               ; preds = %54
  %68 = tail call i64 @fwrite(ptr nonnull @.str.57, i64 7, i64 1, ptr %1)
  br label %70

69:                                               ; preds = %54
  tail call void @html_escaped_print(ptr noundef nonnull %62, ptr noundef %1)
  br label %70

70:                                               ; preds = %69, %67
  %71 = tail call i64 @fwrite(ptr nonnull @.str.66, i64 6, i64 1, ptr %1)
  %72 = add i32 %.06078, 1
  %73 = load i32, ptr %44, align 8
  %74 = urem i32 %72, %73
  %75 = icmp eq i32 %74, 0
  br i1 %75, label %76, label %78

76:                                               ; preds = %70
  %77 = tail call i64 @fwrite(ptr nonnull @.str.64, i64 8, i64 1, ptr %1)
  br label %78

78:                                               ; preds = %70, %76
  %79 = getelementptr inbounds nuw i8, ptr %.177, i64 8
  %80 = load ptr, ptr %79, align 8
  %.not68 = icmp eq ptr %80, null
  br i1 %.not68, label %._crit_edge80, label %46, !llvm.loop !45

._crit_edge80:                                    ; preds = %78, %50, %.critedge
  %81 = load ptr, ptr %0, align 8
  %82 = getelementptr inbounds nuw i8, ptr %81, i64 26
  %83 = load i8, ptr %82, align 2, !range !6, !noundef !7
  %84 = trunc nuw i8 %83 to i1
  br i1 %84, label %85, label %118

85:                                               ; preds = %._crit_edge80
  %86 = getelementptr inbounds nuw i8, ptr %0, i64 72
  %87 = load ptr, ptr %86, align 8
  %88 = icmp eq ptr %87, null
  br i1 %88, label %89, label %footers_with_default.exit

89:                                               ; preds = %85
  %90 = getelementptr inbounds nuw i8, ptr %81, i64 27
  %91 = load i8, ptr %90, align 1, !range !6, !noundef !7
  %92 = trunc nuw i8 %91 to i1
  br i1 %92, label %94, label %footers_with_default.exit.thread

footers_with_default.exit.thread:                 ; preds = %89
  %93 = tail call i64 @fwrite(ptr nonnull @.str.59, i64 9, i64 1, ptr %1)
  br label %116

94:                                               ; preds = %89
  %95 = getelementptr inbounds nuw i8, ptr %81, i64 32
  %96 = load i64, ptr %95, align 8
  %97 = getelementptr inbounds nuw i8, ptr %0, i64 20
  %98 = load i32, ptr %97, align 4
  %99 = sext i32 %98 to i64
  %100 = add i64 %96, %99
  %101 = icmp eq i64 %100, 1
  %102 = select i1 %101, ptr @.str.34, ptr @.str.35
  %103 = tail call i32 (ptr, i64, ptr, ...) @pg_snprintf(ptr noundef nonnull @default_footer, i64 noundef 100, ptr noundef nonnull %102, i64 noundef %100) #19
  br label %footers_with_default.exit

footers_with_default.exit:                        ; preds = %85, %94
  %.0.i = phi ptr [ @default_footer_cell, %94 ], [ %87, %85 ]
  %104 = tail call i64 @fwrite(ptr nonnull @.str.59, i64 9, i64 1, ptr %1)
  br i1 %6, label %116, label %105

105:                                              ; preds = %footers_with_default.exit
  %106 = load volatile i32, ptr @cancel_pressed, align 4
  %.not = icmp eq i32 %106, 0
  br i1 %.not, label %107, label %116

107:                                              ; preds = %105
  %108 = tail call i64 @fwrite(ptr nonnull @.str.60, i64 3, i64 1, ptr %1)
  br label %109

109:                                              ; preds = %107, %109
  %.082 = phi ptr [ %.0.i, %107 ], [ %113, %109 ]
  %110 = load ptr, ptr %.082, align 8
  tail call void @html_escaped_print(ptr noundef %110, ptr noundef %1)
  %111 = tail call i64 @fwrite(ptr nonnull @.str.13, i64 7, i64 1, ptr %1)
  %112 = getelementptr inbounds nuw i8, ptr %.082, i64 8
  %113 = load ptr, ptr %112, align 8
  %.not71 = icmp eq ptr %113, null
  br i1 %.not71, label %114, label %109, !llvm.loop !46

114:                                              ; preds = %109
  %115 = tail call i64 @fwrite(ptr nonnull @.str.61, i64 4, i64 1, ptr %1)
  br label %116

116:                                              ; preds = %footers_with_default.exit.thread, %114, %105, %footers_with_default.exit
  %117 = tail call i32 @fputc(i32 noundef 10, ptr noundef %1)
  br label %118

118:                                              ; preds = %._crit_edge80, %116, %2
  ret void
}